; ModuleID = '13/1629.c'
source_filename = "13/1629.c"
target datalayout = "e-m:e-p270:32:32-p271:32:32-p272:64:64-i64:64-f80:128-n8:16:32:64-S128"
target triple = "x86_64-pc-linux-gnu"

@.str = private unnamed_addr constant [3 x i8] c"%d\00", align 1
@.str.1 = private unnamed_addr constant [4 x i8] c" %d\00", align 1

; Function Attrs: noinline nounwind uwtable
define dso_local i32 @main() #0 {
  %1 = alloca i32, align 4
  %2 = alloca i32, align 4
  %3 = alloca i32, align 4
  %4 = alloca i32, align 4
  %5 = alloca i32, align 4
  %6 = alloca [10000 x i32], align 16
  %7 = alloca i32, align 4
  %8 = alloca [10000 x i32], align 16
  %9 = alloca [10000 x i32], align 16
  %10 = alloca i32, align 4
  %11 = alloca i32, align 4
  %12 = alloca i32, align 4
  %13 = alloca i32, align 4
  store i32 0, i32* %1, align 4
  %14 = bitcast [10000 x i32]* %8 to i8*
  call void @llvm.memset.p0i8.i64(i8* align 16 %14, i8 0, i64 40000, i1 false)
  %15 = bitcast [10000 x i32]* %9 to i8*
  call void @llvm.memset.p0i8.i64(i8* align 16 %15, i8 0, i64 40000, i1 false)
  store i32 0, i32* %11, align 4
  store i32 0, i32* %12, align 4
  %16 = call i32 (i8*, ...) @__isoc99_scanf(i8* getelementptr inbounds ([3 x i8], [3 x i8]* @.str, i64 0, i64 0), i32* %3)
  store i32 0, i32* %5, align 4
  br label %17

17:                                               ; preds = %26, %0
  %18 = load i32, i32* %5, align 4
  %19 = load i32, i32* %3, align 4
  %20 = icmp slt i32 %18, %19
  br i1 %20, label %21, label %29

21:                                               ; preds = %17
  %22 = load i32, i32* %5, align 4
  %23 = sext i32 %22 to i64
  %24 = getelementptr inbounds [10000 x i32], [10000 x i32]* %6, i64 0, i64 %23
  %25 = call i32 (i8*, ...) @__isoc99_scanf(i8* getelementptr inbounds ([3 x i8], [3 x i8]* @.str, i64 0, i64 0), i32* %24)
  br label %26

26:                                               ; preds = %21
  %27 = load i32, i32* %5, align 4
  %28 = add nsw i32 %27, 1
  store i32 %28, i32* %5, align 4
  br label %17

29:                                               ; preds = %17
  %30 = getelementptr inbounds [10000 x i32], [10000 x i32]* %6, i64 0, i64 0
  %31 = load i32, i32* %30, align 16
  %32 = getelementptr inbounds [10000 x i32], [10000 x i32]* %8, i64 0, i64 0
  store i32 %31, i32* %32, align 16
  store i32 0, i32* %5, align 4
  br label %33

33:                                               ; preds = %81, %29
  %34 = load i32, i32* %5, align 4
  %35 = load i32, i32* %3, align 4
  %36 = icmp slt i32 %34, %35
  br i1 %36, label %37, label %84

37:                                               ; preds = %33
  store i32 0, i32* %11, align 4
  store i32 0, i32* %10, align 4
  br label %38

38:                                               ; preds = %61, %37
  %39 = load i32, i32* %10, align 4
  %40 = sext i32 %39 to i64
  %41 = getelementptr inbounds [10000 x i32], [10000 x i32]* %8, i64 0, i64 %40
  %42 = load i32, i32* %41, align 4
  %43 = icmp ne i32 %42, 0
  br i1 %43, label %44, label %64

44:                                               ; preds = %38
  %45 = load i32, i32* %5, align 4
  %46 = sext i32 %45 to i64
  %47 = getelementptr inbounds [10000 x i32], [10000 x i32]* %6, i64 0, i64 %46
  %48 = load i32, i32* %47, align 4
  %49 = load i32, i32* %10, align 4
  %50 = sext i32 %49 to i64
  %51 = getelementptr inbounds [10000 x i32], [10000 x i32]* %8, i64 0, i64 %50
  %52 = load i32, i32* %51, align 4
  %53 = icmp eq i32 %48, %52
  br i1 %53, label %54, label %60

54:                                               ; preds = %44
  %55 = load i32, i32* %10, align 4
  %56 = sext i32 %55 to i64
  %57 = getelementptr inbounds [10000 x i32], [10000 x i32]* %9, i64 0, i64 %56
  %58 = load i32, i32* %57, align 4
  %59 = add nsw i32 %58, 1
  store i32 %59, i32* %57, align 4
  store i32 1, i32* %11, align 4
  br label %64

60:                                               ; preds = %44
  br label %61

61:                                               ; preds = %60
  %62 = load i32, i32* %10, align 4
  %63 = add nsw i32 %62, 1
  store i32 %63, i32* %10, align 4
  br label %38

64:                                               ; preds = %54, %38
  %65 = load i32, i32* %11, align 4
  %66 = icmp eq i32 %65, 0
  br i1 %66, label %67, label %80

67:                                               ; preds = %64
  %68 = load i32, i32* %5, align 4
  %69 = sext i32 %68 to i64
  %70 = getelementptr inbounds [10000 x i32], [10000 x i32]* %6, i64 0, i64 %69
  %71 = load i32, i32* %70, align 4
  %72 = load i32, i32* %10, align 4
  %73 = sext i32 %72 to i64
  %74 = getelementptr inbounds [10000 x i32], [10000 x i32]* %8, i64 0, i64 %73
  store i32 %71, i32* %74, align 4
  %75 = load i32, i32* %10, align 4
  %76 = sext i32 %75 to i64
  %77 = getelementptr inbounds [10000 x i32], [10000 x i32]* %9, i64 0, i64 %76
  %78 = load i32, i32* %77, align 4
  %79 = add nsw i32 %78, 1
  store i32 %79, i32* %77, align 4
  br label %80

80:                                               ; preds = %67, %64
  br label %81

81:                                               ; preds = %80
  %82 = load i32, i32* %5, align 4
  %83 = add nsw i32 %82, 1
  store i32 %83, i32* %5, align 4
  br label %33

84:                                               ; preds = %33
  store i32 0, i32* %10, align 4
  br label %85

85:                                               ; preds = %109, %84
  %86 = load i32, i32* %10, align 4
  %87 = sext i32 %86 to i64
  %88 = getelementptr inbounds [10000 x i32], [10000 x i32]* %8, i64 0, i64 %87
  %89 = load i32, i32* %88, align 4
  %90 = icmp ne i32 %89, 0
  br i1 %90, label %91, label %112

91:                                               ; preds = %85
  %92 = load i32, i32* %12, align 4
  %93 = add nsw i32 %92, 1
  store i32 %93, i32* %12, align 4
  %94 = load i32, i32* %12, align 4
  %95 = icmp eq i32 %94, 1
  br i1 %95, label %96, label %102

96:                                               ; preds = %91
  %97 = load i32, i32* %10, align 4
  %98 = sext i32 %97 to i64
  %99 = getelementptr inbounds [10000 x i32], [10000 x i32]* %8, i64 0, i64 %98
  %100 = load i32, i32* %99, align 4
  %101 = call i32 (i8*, ...) @printf(i8* getelementptr inbounds ([3 x i8], [3 x i8]* @.str, i64 0, i64 0), i32 %100)
  br label %108

102:                                              ; preds = %91
  %103 = load i32, i32* %10, align 4
  %104 = sext i32 %103 to i64
  %105 = getelementptr inbounds [10000 x i32], [10000 x i32]* %8, i64 0, i64 %104
  %106 = load i32, i32* %105, align 4
  %107 = call i32 (i8*, ...) @printf(i8* getelementptr inbounds ([4 x i8], [4 x i8]* @.str.1, i64 0, i64 0), i32 %106)
  br label %108

108:                                              ; preds = %102, %96
  br label %109

109:                                              ; preds = %108
  %110 = load i32, i32* %10, align 4
  %111 = add nsw i32 %110, 1
  store i32 %111, i32* %10, align 4
  br label %85

112:                                              ; preds = %85
  ret i32 0
}

; Function Attrs: argmemonly nounwind willreturn
declare void @llvm.memset.p0i8.i64(i8* nocapture writeonly, i8, i64, i1 immarg) #1

declare dso_local i32 @__isoc99_scanf(i8*, ...) #2

declare dso_local i32 @printf(i8*, ...) #2


!llvm.module.flags = !{!0}
!llvm.ident = !{!1}

!0 = !{i32 1, !"wchar_size", i32 4}
!1 = !{!"clang version 10.0.0-4ubuntu1 "}
